target datalayout = "e-m:e-p270:32:32-p271:32:32-p272:64:64-i64:64-i128:128-f80:128-n8:16:32:64-S128"
target triple = "x86_64-pc-linux-gnu"

@_ZN7rocksdb16ThreadStatusUtil27thread_updater_local_cache_E = thread_local global ptr null, align 8
@_ZN7rocksdb16ThreadStatusUtil27thread_updater_initialized_E = thread_local global i8 0, align 1

; Function Attrs: mustprogress uwtable
define noundef zeroext i1 @_ZN7rocksdb16ThreadStatusUtil27MaybeInitThreadLocalUpdaterEPKNS_3EnvE(ptr noundef %0) #3 align 2 {
  %2 = alloca ptr, align 8
  store ptr %0, ptr %2, align 8, !tbaa !39
  %3 = call align 1 ptr @llvm.threadlocal.address.p0(ptr align 1 @_ZN7rocksdb16ThreadStatusUtil27thread_updater_initialized_E)
  %4 = load i8, ptr %3, align 1, !tbaa !47, !range !49, !noundef !50
  %5 = trunc i8 %4 to i1
  br i1 %5, label %17, label %6

6:                                                ; preds = %1
  %7 = load ptr, ptr %2, align 8, !tbaa !39
  %8 = icmp ne ptr %7, null
  br i1 %8, label %9, label %17

9:                                                ; preds = %6
  %10 = call align 1 ptr @llvm.threadlocal.address.p0(ptr align 1 @_ZN7rocksdb16ThreadStatusUtil27thread_updater_initialized_E)
  store i8 1, ptr %10, align 1, !tbaa !47
  %11 = load ptr, ptr %2, align 8, !tbaa !39
  %12 = load ptr, ptr %11, align 8, !tbaa !45
  %13 = getelementptr inbounds ptr, ptr %12, i64 80
  %14 = load ptr, ptr %13, align 8
  %15 = call noundef ptr %14(ptr noundef nonnull align 8 dereferenceable(72) %11)
  %16 = call align 8 ptr @llvm.threadlocal.address.p0(ptr align 8 @_ZN7rocksdb16ThreadStatusUtil27thread_updater_local_cache_E)
  store ptr %15, ptr %16, align 8, !tbaa !43
  br label %17

17:                                               ; preds = %9, %6, %1
  %18 = call align 8 ptr @llvm.threadlocal.address.p0(ptr align 8 @_ZN7rocksdb16ThreadStatusUtil27thread_updater_local_cache_E)
  %19 = load ptr, ptr %18, align 8, !tbaa !43
  %20 = icmp ne ptr %19, null
  ret i1 %20
}

; Function Attrs: mustprogress uwtable
define void @_ZN7rocksdb16ThreadStatusUtil14RegisterThreadEPKNS_3EnvENS_12ThreadStatus10ThreadTypeE(ptr noundef %0, i32 noundef %1) #3 align 2 {
  %3 = alloca ptr, align 8
  %4 = alloca i32, align 4
  store ptr %0, ptr %3, align 8, !tbaa !39
  store i32 %1, ptr %4, align 4, !tbaa !41
  %5 = load ptr, ptr %3, align 8, !tbaa !39
  %6 = call noundef zeroext i1 @_ZN7rocksdb16ThreadStatusUtil27MaybeInitThreadLocalUpdaterEPKNS_3EnvE(ptr noundef %5)
  br i1 %6, label %8, label %7

7:                                                ; preds = %2
  br label %17

8:                                                ; preds = %2
  %9 = call align 8 ptr @llvm.threadlocal.address.p0(ptr align 8 @_ZN7rocksdb16ThreadStatusUtil27thread_updater_local_cache_E)
  %10 = load ptr, ptr %9, align 8, !tbaa !43
  %11 = load i32, ptr %4, align 4, !tbaa !41
  %12 = load ptr, ptr %3, align 8, !tbaa !39
  %13 = load ptr, ptr %12, align 8, !tbaa !45
  %14 = getelementptr inbounds ptr, ptr %13, i64 81
  %15 = load ptr, ptr %14, align 8
  %16 = call noundef i64 %15(ptr noundef nonnull align 8 dereferenceable(72) %12)
  call void @_ZN7rocksdb19ThreadStatusUpdater14RegisterThreadENS_12ThreadStatus10ThreadTypeEm(ptr noundef nonnull align 8 dereferenceable(216) %10, i32 noundef %11, i64 noundef %16)
  br label %17

17:                                               ; preds = %8, %7
  ret void
}