; Function Attrs: mustprogress uwtable
define void @_ZN7rocksdb16ThreadStatusUtil14RegisterThreadEPKNS_3EnvENS_12ThreadStatus10ThreadTypeE(ptr noundef %0, i32 noundef %1) local_unnamed_addr #3 align 2 {
  %3 = tail call align 1 ptr @llvm.threadlocal.address.p0(ptr align 1 @_ZN7rocksdb16ThreadStatusUtil27thread_updater_initialized_E)
  %4 = load i8, ptr %3, align 1, !tbaa !14, !range !16, !noundef !17
  %5 = trunc nuw i8 %4 to i1
  %6 = icmp eq ptr %0, null
  %or.cond.not.i = or i1 %6, %5
  br i1 %or.cond.not.i, label %._crit_edge.i, label %7

._crit_edge.i:                                    ; preds = %2
  %.pre.i = tail call align 8 ptr @llvm.threadlocal.address.p0(ptr align 8 @_ZN7rocksdb16ThreadStatusUtil27thread_updater_local_cache_E)
  %.pr = load ptr, ptr %.pre.i, align 8, !tbaa !18
  br label %_ZN7rocksdb16ThreadStatusUtil27MaybeInitThreadLocalUpdaterEPKNS_3EnvE.exit

7:                                                ; preds = %2
  store i8 1, ptr %3, align 1, !tbaa !14
  %8 = load ptr, ptr %0, align 8, !tbaa !20
  %9 = getelementptr inbounds nuw i8, ptr %8, i64 640
  %10 = load ptr, ptr %9, align 8
  %11 = tail call noundef ptr %10(ptr noundef nonnull align 8 dereferenceable(72) %0)
  %12 = tail call align 8 ptr @llvm.threadlocal.address.p0(ptr align 8 @_ZN7rocksdb16ThreadStatusUtil27thread_updater_local_cache_E)
  store ptr %11, ptr %12, align 8, !tbaa !18
  br label %_ZN7rocksdb16ThreadStatusUtil27MaybeInitThreadLocalUpdaterEPKNS_3EnvE.exit

_ZN7rocksdb16ThreadStatusUtil27MaybeInitThreadLocalUpdaterEPKNS_3EnvE.exit: ; preds = %._crit_edge.i, %7
  %13 = phi ptr [ %.pr, %._crit_edge.i ], [ %11, %7 ]
  %.not = icmp eq ptr %13, null
  br i1 %.not, label %21, label %14

14:                                               ; preds = %_ZN7rocksdb16ThreadStatusUtil27MaybeInitThreadLocalUpdaterEPKNS_3EnvE.exit
  %15 = tail call align 8 ptr @llvm.threadlocal.address.p0(ptr align 8 @_ZN7rocksdb16ThreadStatusUtil27thread_updater_local_cache_E)
  %16 = load ptr, ptr %15, align 8, !tbaa !18
  %17 = load ptr, ptr %0, align 8, !tbaa !20
  %18 = getelementptr inbounds nuw i8, ptr %17, i64 648
  %19 = load ptr, ptr %18, align 8
  %20 = tail call noundef i64 %19(ptr noundef nonnull align 8 dereferenceable(72) %0)
  tail call void @_ZN7rocksdb19ThreadStatusUpdater14RegisterThreadENS_12ThreadStatus10ThreadTypeEm(ptr noundef nonnull align 8 dereferenceable(216) %16, i32 noundef %1, i64 noundef %20)
  br label %21

21:                                               ; preds = %_ZN7rocksdb16ThreadStatusUtil27MaybeInitThreadLocalUpdaterEPKNS_3EnvE.exit, %14
  ret void
}